; ModuleID = '13/1108.c'
source_filename = "13/1108.c"
target datalayout = "e-m:e-p270:32:32-p271:32:32-p272:64:64-i64:64-f80:128-n8:16:32:64-S128"
target triple = "x86_64-pc-linux-gnu"

@.str = private unnamed_addr constant [3 x i8] c"%d\00", align 1
@.str.1 = private unnamed_addr constant [4 x i8] c" %d\00", align 1

; Function Attrs: noinline nounwind uwtable
define dso_local i32 @main() #0 {
  %1 = alloca i32, align 4
  %2 = alloca i64, align 8
  %3 = alloca i64, align 8
  %4 = alloca i64, align 8
  %5 = alloca [100 x i32], align 16
  store i32 0, i32* %1, align 4
  %6 = bitcast [100 x i32]* %5 to i8*
  call void @llvm.memset.p0i8.i64(i8* align 16 %6, i8 0, i64 400, i1 false)
  %7 = call i32 (i8*, ...) @__isoc99_scanf(i8* getelementptr inbounds ([3 x i8], [3 x i8]* @.str, i64 0, i64 0), i64* %3)
  %8 = call i32 (i8*, ...) @__isoc99_scanf(i8* getelementptr inbounds ([3 x i8], [3 x i8]* @.str, i64 0, i64 0), i64* %4)
  %9 = load i64, i64* %4, align 8
  %10 = call i32 (i8*, ...) @printf(i8* getelementptr inbounds ([3 x i8], [3 x i8]* @.str, i64 0, i64 0), i64 %9)
  %11 = load i64, i64* %4, align 8
  %12 = getelementptr inbounds [100 x i32], [100 x i32]* %5, i64 0, i64 %11
  store i32 1, i32* %12, align 4
  store i64 2, i64* %2, align 8
  br label %13

13:                                               ; preds = %29, %0
  %14 = load i64, i64* %2, align 8
  %15 = load i64, i64* %3, align 8
  %16 = icmp sle i64 %14, %15
  br i1 %16, label %17, label %32

17:                                               ; preds = %13
  %18 = call i32 (i8*, ...) @__isoc99_scanf(i8* getelementptr inbounds ([3 x i8], [3 x i8]* @.str, i64 0, i64 0), i64* %4)
  %19 = load i64, i64* %4, align 8
  %20 = getelementptr inbounds [100 x i32], [100 x i32]* %5, i64 0, i64 %19
  %21 = load i32, i32* %20, align 4
  %22 = icmp eq i32 %21, 0
  br i1 %22, label %23, label %28

23:                                               ; preds = %17
  %24 = load i64, i64* %4, align 8
  %25 = call i32 (i8*, ...) @printf(i8* getelementptr inbounds ([4 x i8], [4 x i8]* @.str.1, i64 0, i64 0), i64 %24)
  %26 = load i64, i64* %4, align 8
  %27 = getelementptr inbounds [100 x i32], [100 x i32]* %5, i64 0, i64 %26
  store i32 1, i32* %27, align 4
  br label %28

28:                                               ; preds = %23, %17
  br label %29

29:                                               ; preds = %28
  %30 = load i64, i64* %2, align 8
  %31 = add nsw i64 %30, 1
  store i64 %31, i64* %2, align 8
  br label %13

32:                                               ; preds = %13
  ret i32 0
}

; Function Attrs: argmemonly nounwind willreturn
declare void @llvm.memset.p0i8.i64(i8* nocapture writeonly, i8, i64, i1 immarg) #1

declare dso_local i32 @__isoc99_scanf(i8*, ...) #2

declare dso_local i32 @printf(i8*, ...) #2


!llvm.module.flags = !{!0}
!llvm.ident = !{!1}

!0 = !{i32 1, !"wchar_size", i32 4}
!1 = !{!"clang version 10.0.0-4ubuntu1 "}
